; Function Attrs: mustprogress uwtable
define hidden noundef i64 @_ZNK6google8protobuf16EnumValueOptions12ByteSizeLongEv(ptr noundef nonnull align 8 dereferenceable(80) %0) unnamed_addr #3 align 2 {
  %2 = getelementptr inbounds nuw i8, ptr %0, i64 16
  %3 = tail call noundef i64 @_ZNK6google8protobuf8internal12ExtensionSet8ByteSizeEv(ptr noundef nonnull align 8 dereferenceable(24) %2)
  %4 = getelementptr inbounds nuw i8, ptr %0, i64 56
  %5 = load i32, ptr %4, align 8, !tbaa !22
  %6 = sext i32 %5 to i64
  %7 = shl nsw i64 %6, 1
  %8 = add i64 %7, %3
  %9 = getelementptr inbounds nuw i8, ptr %0, i64 64
  %10 = load ptr, ptr %9, align 8, !tbaa !18
  %.not.i.i = icmp eq ptr %10, null
  %11 = getelementptr inbounds nuw i8, ptr %10, i64 8
  %spec.select.i.i = select i1 %.not.i.i, ptr null, ptr %11
  %12 = getelementptr inbounds ptr, ptr %spec.select.i.i, i64 %6
  %.not1415 = icmp eq i32 %5, 0
  br i1 %.not1415, label %._crit_edge, label %.lr.ph

._crit_edge:                                      ; preds = %.lr.ph, %1
  %.0.lcssa = phi i64 [ %8, %1 ], [ %31, %.lr.ph ]
  %13 = getelementptr inbounds nuw i8, ptr %0, i64 40
  %14 = load i32, ptr %13, align 8, !tbaa !58
  %15 = shl i32 %14, 1
  %16 = and i32 %15, 2
  %17 = zext nneg i32 %16 to i64
  %spec.select = add i64 %.0.lcssa, %17
  %18 = getelementptr inbounds nuw i8, ptr %0, i64 44
  %19 = tail call noundef i64 @_ZNK6google8protobuf7Message29MaybeComputeUnknownFieldsSizeEmPNS0_8internal10CachedSizeE(ptr noundef nonnull align 8 dereferenceable(16) %0, i64 noundef %spec.select, ptr noundef nonnull %18)
  ret i64 %19

.lr.ph:                                           ; preds = %1, %.lr.ph
  %.017 = phi i64 [ %31, %.lr.ph ], [ %8, %1 ]
  %.sroa.011.016 = phi ptr [ %32, %.lr.ph ], [ %spec.select.i.i, %1 ]
  %20 = load ptr, ptr %.sroa.011.016, align 8, !tbaa !27
  %21 = tail call noundef i64 @_ZNK6google8protobuf19UninterpretedOption12ByteSizeLongEv(ptr noundef nonnull align 8 dereferenceable(96) %20)
  %22 = trunc i64 %21 to i32
  %23 = or i32 %22, 1
  %24 = tail call range(i32 0, 33) i32 @llvm.ctlz.i32(i32 %23, i1 true)
  %25 = xor i32 %24, 31
  %26 = mul nuw nsw i32 %25, 9
  %27 = add nuw nsw i32 %26, 73
  %28 = lshr i32 %27, 6
  %29 = zext nneg i32 %28 to i64
  %30 = add i64 %21, %.017
  %31 = add i64 %30, %29
  %32 = getelementptr inbounds nuw i8, ptr %.sroa.011.016, i64 8
  %.not14 = icmp eq ptr %32, %12
  br i1 %.not14, label %._crit_edge, label %.lr.ph
}